target datalayout = "e-m:e-p270:32:32-p271:32:32-p272:64:64-i64:64-i128:128-f80:128-n8:16:32:64-S128"
target triple = "x86_64-pc-linux-gnu"

%struct.mbedtls_mpi = type { ptr, i16, i16 }
%struct.mbedtls_rsa_context = type { i32, i64, %struct.mbedtls_mpi, %struct.mbedtls_mpi, %struct.mbedtls_mpi, %struct.mbedtls_mpi, %struct.mbedtls_mpi, %struct.mbedtls_mpi, %struct.mbedtls_mpi, %struct.mbedtls_mpi, %struct.mbedtls_mpi, %struct.mbedtls_mpi, %struct.mbedtls_mpi, %struct.mbedtls_mpi, %struct.mbedtls_mpi, i32, i32 }

; Function Attrs: nounwind uwtable
define hidden i32 @mbedtls_rsa_rsassa_pkcs1_v15_verify(ptr noundef %0, i32 noundef %1, i32 noundef %2, ptr noundef %3, ptr noundef %4) #0 {
  %6 = alloca i32, align 4
  %7 = alloca ptr, align 8
  %8 = alloca i32, align 4
  %9 = alloca i32, align 4
  %10 = alloca ptr, align 8
  %11 = alloca ptr, align 8
  %12 = alloca i32, align 4
  %13 = alloca i64, align 8
  %14 = alloca ptr, align 8
  %15 = alloca ptr, align 8
  %16 = alloca i32, align 4
  store ptr %0, ptr %7, align 8, !tbaa !3
  store i32 %1, ptr %8, align 4, !tbaa !12
  store i32 %2, ptr %9, align 4, !tbaa !12
  store ptr %3, ptr %10, align 8, !tbaa !8
  store ptr %4, ptr %11, align 8, !tbaa !8
  call void @llvm.lifetime.start.p0(i64 4, ptr %12) #9
  store i32 0, ptr %12, align 4, !tbaa !12
  call void @llvm.lifetime.start.p0(i64 8, ptr %13) #9
  call void @llvm.lifetime.start.p0(i64 8, ptr %14) #9
  store ptr null, ptr %14, align 8, !tbaa !8
  call void @llvm.lifetime.start.p0(i64 8, ptr %15) #9
  store ptr null, ptr %15, align 8, !tbaa !8
  %17 = load i32, ptr %8, align 4, !tbaa !12
  %18 = icmp ne i32 %17, 0
  br i1 %18, label %22, label %19

19:                                               ; preds = %5
  %20 = load i32, ptr %9, align 4, !tbaa !12
  %21 = icmp ne i32 %20, 0
  br i1 %21, label %22, label %26

22:                                               ; preds = %19, %5
  %23 = load ptr, ptr %10, align 8, !tbaa !8
  %24 = icmp eq ptr %23, null
  br i1 %24, label %25, label %26

25:                                               ; preds = %22
  store i32 -16512, ptr %6, align 4
  store i32 1, ptr %16, align 4
  br label %77

26:                                               ; preds = %22, %19
  %27 = load ptr, ptr %7, align 8, !tbaa !3
  %28 = getelementptr inbounds nuw %struct.mbedtls_rsa_context, ptr %27, i32 0, i32 1
  %29 = load i64, ptr %28, align 8, !tbaa !19
  store i64 %29, ptr %13, align 8, !tbaa !10
  %30 = load i64, ptr %13, align 8, !tbaa !10
  %31 = call noalias ptr @calloc(i64 noundef 1, i64 noundef %30) #10
  store ptr %31, ptr %14, align 8, !tbaa !8
  %32 = icmp eq ptr %31, null
  br i1 %32, label %37, label %33

33:                                               ; preds = %26
  %34 = load i64, ptr %13, align 8, !tbaa !10
  %35 = call noalias ptr @calloc(i64 noundef 1, i64 noundef %34) #10
  store ptr %35, ptr %15, align 8, !tbaa !8
  %36 = icmp eq ptr %35, null
  br i1 %36, label %37, label %38

37:                                               ; preds = %33, %26
  store i32 -16, ptr %12, align 4, !tbaa !12
  br label %63

38:                                               ; preds = %33
  %39 = load i32, ptr %8, align 4, !tbaa !12
  %40 = load i32, ptr %9, align 4, !tbaa !12
  %41 = load ptr, ptr %10, align 8, !tbaa !8
  %42 = load i64, ptr %13, align 8, !tbaa !10
  %43 = load ptr, ptr %15, align 8, !tbaa !8
  %44 = call i32 @rsa_rsassa_pkcs1_v15_encode(i32 noundef %39, i32 noundef %40, ptr noundef %41, i64 noundef %42, ptr noundef %43)
  store i32 %44, ptr %12, align 4, !tbaa !12
  %45 = icmp ne i32 %44, 0
  br i1 %45, label %46, label %47

46:                                               ; preds = %38
  br label %63

47:                                               ; preds = %38
  %48 = load ptr, ptr %7, align 8, !tbaa !3
  %49 = load ptr, ptr %11, align 8, !tbaa !8
  %50 = load ptr, ptr %14, align 8, !tbaa !8
  %51 = call i32 @mbedtls_rsa_public(ptr noundef %48, ptr noundef %49, ptr noundef %50)
  store i32 %51, ptr %12, align 4, !tbaa !12
  %52 = load i32, ptr %12, align 4, !tbaa !12
  %53 = icmp ne i32 %52, 0
  br i1 %53, label %54, label %55

54:                                               ; preds = %47
  br label %63

55:                                               ; preds = %47
  %56 = load ptr, ptr %14, align 8, !tbaa !8
  %57 = load ptr, ptr %15, align 8, !tbaa !8
  %58 = load i64, ptr %13, align 8, !tbaa !10
  %59 = call i32 @mbedtls_ct_memcmp(ptr noundef %56, ptr noundef %57, i64 noundef %58)
  store i32 %59, ptr %12, align 4, !tbaa !12
  %60 = icmp ne i32 %59, 0
  br i1 %60, label %61, label %62

61:                                               ; preds = %55
  store i32 -17280, ptr %12, align 4, !tbaa !12
  br label %63

62:                                               ; preds = %55
  br label %63

63:                                               ; preds = %62, %61, %54, %46, %37
  %64 = load ptr, ptr %14, align 8, !tbaa !8
  %65 = icmp ne ptr %64, null
  br i1 %65, label %66, label %69

66:                                               ; preds = %63
  %67 = load ptr, ptr %14, align 8, !tbaa !8
  %68 = load i64, ptr %13, align 8, !tbaa !10
  call void @mbedtls_zeroize_and_free(ptr noundef %67, i64 noundef %68)
  br label %69

69:                                               ; preds = %66, %63
  %70 = load ptr, ptr %15, align 8, !tbaa !8
  %71 = icmp ne ptr %70, null
  br i1 %71, label %72, label %75

72:                                               ; preds = %69
  %73 = load ptr, ptr %15, align 8, !tbaa !8
  %74 = load i64, ptr %13, align 8, !tbaa !10
  call void @mbedtls_zeroize_and_free(ptr noundef %73, i64 noundef %74)
  br label %75

75:                                               ; preds = %72, %69
  %76 = load i32, ptr %12, align 4, !tbaa !12
  store i32 %76, ptr %6, align 4
  store i32 1, ptr %16, align 4
  br label %77

77:                                               ; preds = %75, %25
  call void @llvm.lifetime.end.p0(i64 8, ptr %15) #9
  call void @llvm.lifetime.end.p0(i64 8, ptr %14) #9
  call void @llvm.lifetime.end.p0(i64 8, ptr %13) #9
  call void @llvm.lifetime.end.p0(i64 4, ptr %12) #9
  %78 = load i32, ptr %6, align 4
  ret i32 %78
}