; Function Attrs: nounwind uwtable
define hidden range(i32 -2147483648, 2147466624) i32 @mbedtls_rsa_rsassa_pkcs1_v15_verify(ptr noundef %0, i32 noundef %1, i32 noundef %2, ptr noundef readonly %3, ptr noundef %4) local_unnamed_addr #0 {
  %6 = or i32 %2, %1
  %or.cond = icmp ne i32 %6, 0
  %7 = icmp eq ptr %3, null
  %or.cond3 = and i1 %or.cond, %7
  br i1 %or.cond3, label %.thread46, label %8

8:                                                ; preds = %5
  %9 = getelementptr inbounds nuw i8, ptr %0, i64 8
  %10 = load i64, ptr %9, align 8, !tbaa !12
  %11 = tail call noalias ptr @calloc(i64 noundef 1, i64 noundef %10) #15
  %12 = icmp eq ptr %11, null
  br i1 %12, label %.thread46, label %13

13:                                               ; preds = %8
  %14 = tail call noalias ptr @calloc(i64 noundef 1, i64 noundef %10) #15
  %15 = icmp eq ptr %14, null
  br i1 %15, label %.thread46.sink.split, label %16

16:                                               ; preds = %13
  %17 = tail call fastcc i32 @rsa_rsassa_pkcs1_v15_encode(i32 noundef %1, i32 noundef %2, ptr noundef %3, i64 noundef %10, ptr noundef nonnull %14)
  %.not = icmp eq i32 %17, 0
  br i1 %.not, label %18, label %22

18:                                               ; preds = %16
  %19 = tail call i32 @mbedtls_rsa_public(ptr noundef nonnull %0, ptr noundef %4, ptr noundef nonnull %11)
  %.not36 = icmp eq i32 %19, 0
  br i1 %.not36, label %20, label %22

20:                                               ; preds = %18
  %21 = tail call i32 @mbedtls_ct_memcmp(ptr noundef nonnull %11, ptr noundef nonnull %14, i64 noundef %10) #14
  %.not37 = icmp eq i32 %21, 0
  %spec.store.select = select i1 %.not37, i32 0, i32 -17280
  br label %22

22:                                               ; preds = %20, %18, %16
  %.029.ph.ph = phi i32 [ %17, %16 ], [ %19, %18 ], [ %spec.store.select, %20 ]
  tail call void @mbedtls_zeroize_and_free(ptr noundef nonnull %11, i64 noundef %10) #14
  br label %.thread46.sink.split

.thread46.sink.split:                             ; preds = %13, %22
  %.sink = phi ptr [ %14, %22 ], [ %11, %13 ]
  %.028.ph = phi i32 [ %.029.ph.ph, %22 ], [ -16, %13 ]
  tail call void @mbedtls_zeroize_and_free(ptr noundef nonnull %.sink, i64 noundef %10) #14
  br label %.thread46

.thread46:                                        ; preds = %.thread46.sink.split, %8, %5
  %.028 = phi i32 [ -16512, %5 ], [ -16, %8 ], [ %.028.ph, %.thread46.sink.split ]
  ret i32 %.028
}